target datalayout = "e-m:e-p270:32:32-p271:32:32-p272:64:64-i64:64-i128:128-f80:128-n8:16:32:64-S128"
target triple = "x86_64-pc-linux-gnu"

%struct.arrowdir_t = type { ptr, i32, i32 }
%struct.Agobj_s = type { %struct.Agtag_s, ptr }
%struct.Agtag_s = type { i32, i64 }
%struct.Agedgeinfo_t = type { %struct.Agrec_s, ptr, %struct.port, %struct.port, ptr, ptr, ptr, ptr, i8, i8, i8, i8, i8, ptr, ptr, double, double, %struct.Ppoly_t, i8, i8, i16, i32, i32, i32, i16, i32, ptr }
%struct.Agrec_s = type { ptr, ptr }
%struct.port = type { %struct.pointf_s, double, ptr, i8, i8, i8, i8, i8, i8, ptr }
%struct.pointf_s = type { double, double }
%struct.Ppoly_t = type { ptr, i64 }
%struct.Agedge_s = type { %struct.Agobj_s, %struct.dtlink_s_, %struct.dtlink_s_, ptr }
%struct.dtlink_s_ = type { ptr, %union.anon }
%union.anon = type { ptr }

@E_dir = external global ptr, align 8
@.str = private unnamed_addr constant [10 x i8] c"arrowhead\00", align 1
@.str.1 = private unnamed_addr constant [10 x i8] c"arrowtail\00", align 1

; Function Attrs: inlinehint nounwind uwtable
define internal zeroext i1 @streq(ptr noundef %0, ptr noundef %1) #3 {
  %3 = alloca ptr, align 8
  %4 = alloca ptr, align 8
  store ptr %0, ptr %3, align 8, !tbaa !14
  store ptr %1, ptr %4, align 8, !tbaa !14
  %5 = load ptr, ptr %3, align 8, !tbaa !14
  %6 = load ptr, ptr %4, align 8, !tbaa !14
  %7 = call i32 @strcmp(ptr noundef %5, ptr noundef %6) #10
  %8 = icmp eq i32 %7, 0
  ret i1 %8
}

; Function Attrs: nounwind uwtable
define void @arrow_flags(ptr noundef %0, ptr noundef %1, ptr noundef %2) #0 {
  %4 = alloca ptr, align 8
  %5 = alloca ptr, align 8
  %6 = alloca ptr, align 8
  %7 = alloca ptr, align 8
  %8 = alloca ptr, align 8
  %9 = alloca i32, align 4
  %10 = alloca ptr, align 8
  %11 = alloca ptr, align 8
  %12 = alloca ptr, align 8
  %13 = alloca i32, align 4
  %14 = alloca i32, align 4
  store ptr %0, ptr %4, align 8, !tbaa !3
  store ptr %1, ptr %5, align 8, !tbaa !8
  store ptr %2, ptr %6, align 8, !tbaa !8
  call void @llvm.lifetime.start.p0(i64 8, ptr %7) #9
  %15 = load ptr, ptr %5, align 8, !tbaa !8
  store i32 0, ptr %15, align 4, !tbaa !10
  %16 = load ptr, ptr %4, align 8, !tbaa !3
  %17 = call ptr @agraphof(ptr noundef %16)
  %18 = call i32 @agisdirected(ptr noundef %17)
  %19 = icmp ne i32 %18, 0
  %20 = select i1 %19, i32 1, i32 0
  %21 = load ptr, ptr %6, align 8, !tbaa !8
  store i32 %20, ptr %21, align 4, !tbaa !10
  %22 = load ptr, ptr @E_dir, align 8, !tbaa !12
  %23 = icmp ne ptr %22, null
  br i1 %23, label %24, label %60

24:                                               ; preds = %3
  %25 = load ptr, ptr %4, align 8, !tbaa !3
  %26 = load ptr, ptr @E_dir, align 8, !tbaa !12
  %27 = call ptr @agxget(ptr noundef %25, ptr noundef %26)
  store ptr %27, ptr %7, align 8, !tbaa !14
  %28 = getelementptr inbounds i8, ptr %27, i64 0
  %29 = load i8, ptr %28, align 1, !tbaa !16
  %30 = sext i8 %29 to i32
  %31 = icmp ne i32 %30, 0
  br i1 %31, label %32, label %60

32:                                               ; preds = %24
  call void @llvm.lifetime.start.p0(i64 8, ptr %8) #9
  store ptr @Arrowdirs, ptr %8, align 8, !tbaa !17
  br label %33

33:                                               ; preds = %55, %32
  %34 = load ptr, ptr %8, align 8, !tbaa !17
  %35 = getelementptr inbounds nuw %struct.arrowdir_t, ptr %34, i32 0, i32 0
  %36 = load ptr, ptr %35, align 8, !tbaa !18
  %37 = icmp ne ptr %36, null
  br i1 %37, label %39, label %38

38:                                               ; preds = %33
  store i32 2, ptr %9, align 4
  br label %58

39:                                               ; preds = %33
  %40 = load ptr, ptr %7, align 8, !tbaa !14
  %41 = load ptr, ptr %8, align 8, !tbaa !17
  %42 = getelementptr inbounds nuw %struct.arrowdir_t, ptr %41, i32 0, i32 0
  %43 = load ptr, ptr %42, align 8, !tbaa !18
  %44 = call zeroext i1 @streq(ptr noundef %40, ptr noundef %43)
  br i1 %44, label %45, label %54

45:                                               ; preds = %39
  %46 = load ptr, ptr %8, align 8, !tbaa !17
  %47 = getelementptr inbounds nuw %struct.arrowdir_t, ptr %46, i32 0, i32 1
  %48 = load i32, ptr %47, align 8, !tbaa !20
  %49 = load ptr, ptr %5, align 8, !tbaa !8
  store i32 %48, ptr %49, align 4, !tbaa !10
  %50 = load ptr, ptr %8, align 8, !tbaa !17
  %51 = getelementptr inbounds nuw %struct.arrowdir_t, ptr %50, i32 0, i32 2
  %52 = load i32, ptr %51, align 4, !tbaa !21
  %53 = load ptr, ptr %6, align 8, !tbaa !8
  store i32 %52, ptr %53, align 4, !tbaa !10
  store i32 2, ptr %9, align 4
  br label %58

54:                                               ; preds = %39
  br label %55

55:                                               ; preds = %54
  %56 = load ptr, ptr %8, align 8, !tbaa !17
  %57 = getelementptr inbounds nuw %struct.arrowdir_t, ptr %56, i32 1
  store ptr %57, ptr %8, align 8, !tbaa !17
  br label %33, !llvm.loop !22

58:                                               ; preds = %45, %38
  call void @llvm.lifetime.end.p0(i64 8, ptr %8) #9
  br label %59

59:                                               ; preds = %58
  br label %60

60:                                               ; preds = %59, %24, %3
  %61 = load ptr, ptr %6, align 8, !tbaa !8
  %62 = load i32, ptr %61, align 4, !tbaa !10
  %63 = icmp eq i32 %62, 1
  br i1 %63, label %64, label %82

64:                                               ; preds = %60
  call void @llvm.lifetime.start.p0(i64 8, ptr %10) #9
  %65 = load ptr, ptr %4, align 8, !tbaa !3
  %66 = call ptr @agraphof(ptr noundef %65)
  %67 = call ptr @agattr(ptr noundef %66, i32 noundef 2, ptr noundef @.str, ptr noundef null)
  store ptr %67, ptr %10, align 8, !tbaa !12
  %68 = load ptr, ptr %10, align 8, !tbaa !12
  %69 = icmp ne ptr %68, null
  br i1 %69, label %70, label %81

70:                                               ; preds = %64
  %71 = load ptr, ptr %4, align 8, !tbaa !3
  %72 = load ptr, ptr %10, align 8, !tbaa !12
  %73 = call ptr @agxget(ptr noundef %71, ptr noundef %72)
  store ptr %73, ptr %7, align 8, !tbaa !14
  %74 = getelementptr inbounds i8, ptr %73, i64 0
  %75 = load i8, ptr %74, align 1, !tbaa !16
  %76 = sext i8 %75 to i32
  %77 = icmp ne i32 %76, 0
  br i1 %77, label %78, label %81

78:                                               ; preds = %70
  %79 = load ptr, ptr %7, align 8, !tbaa !14
  %80 = load ptr, ptr %6, align 8, !tbaa !8
  call void @arrow_match_name(ptr noundef %79, ptr noundef %80)
  br label %81

81:                                               ; preds = %78, %70, %64
  call void @llvm.lifetime.end.p0(i64 8, ptr %10) #9
  br label %82

82:                                               ; preds = %81, %60
  %83 = load ptr, ptr %5, align 8, !tbaa !8
  %84 = load i32, ptr %83, align 4, !tbaa !10
  %85 = icmp eq i32 %84, 1
  br i1 %85, label %86, label %104

86:                                               ; preds = %82
  call void @llvm.lifetime.start.p0(i64 8, ptr %11) #9
  %87 = load ptr, ptr %4, align 8, !tbaa !3
  %88 = call ptr @agraphof(ptr noundef %87)
  %89 = call ptr @agattr(ptr noundef %88, i32 noundef 2, ptr noundef @.str.1, ptr noundef null)
  store ptr %89, ptr %11, align 8, !tbaa !12
  %90 = load ptr, ptr %11, align 8, !tbaa !12
  %91 = icmp ne ptr %90, null
  br i1 %91, label %92, label %103

92:                                               ; preds = %86
  %93 = load ptr, ptr %4, align 8, !tbaa !3
  %94 = load ptr, ptr %11, align 8, !tbaa !12
  %95 = call ptr @agxget(ptr noundef %93, ptr noundef %94)
  store ptr %95, ptr %7, align 8, !tbaa !14
  %96 = getelementptr inbounds i8, ptr %95, i64 0
  %97 = load i8, ptr %96, align 1, !tbaa !16
  %98 = sext i8 %97 to i32
  %99 = icmp ne i32 %98, 0
  br i1 %99, label %100, label %103

100:                                              ; preds = %92
  %101 = load ptr, ptr %7, align 8, !tbaa !14
  %102 = load ptr, ptr %5, align 8, !tbaa !8
  call void @arrow_match_name(ptr noundef %101, ptr noundef %102)
  br label %103

103:                                              ; preds = %100, %92, %86
  call void @llvm.lifetime.end.p0(i64 8, ptr %11) #9
  br label %104

104:                                              ; preds = %103, %82
  %105 = load ptr, ptr %4, align 8, !tbaa !3
  %106 = getelementptr inbounds nuw %struct.Agobj_s, ptr %105, i32 0, i32 1
  %107 = load ptr, ptr %106, align 8, !tbaa !24
  %108 = getelementptr inbounds nuw %struct.Agedgeinfo_t, ptr %107, i32 0, i32 19
  %109 = load i8, ptr %108, align 1, !tbaa !29, !range !41, !noundef !42
  %110 = trunc i8 %109 to i1
  br i1 %110, label %111, label %165

111:                                              ; preds = %104
  call void @llvm.lifetime.start.p0(i64 8, ptr %12) #9
  call void @llvm.lifetime.start.p0(i64 4, ptr %13) #9
  call void @llvm.lifetime.start.p0(i64 4, ptr %14) #9
  %112 = load ptr, ptr %4, align 8, !tbaa !3
  %113 = getelementptr inbounds nuw %struct.Agobj_s, ptr %112, i32 0, i32 0
  %114 = load i32, ptr %113, align 8
  %115 = and i32 %114, 3
  %116 = icmp eq i32 %115, 2
  br i1 %116, label %117, label %119

117:                                              ; preds = %111
  %118 = load ptr, ptr %4, align 8, !tbaa !3
  br label %122

119:                                              ; preds = %111
  %120 = load ptr, ptr %4, align 8, !tbaa !3
  %121 = getelementptr inbounds %struct.Agedge_s, ptr %120, i64 -1
  br label %122

122:                                              ; preds = %119, %117
  %123 = phi ptr [ %118, %117 ], [ %121, %119 ]
  %124 = getelementptr inbounds nuw %struct.Agedge_s, ptr %123, i32 0, i32 3
  %125 = load ptr, ptr %124, align 8, !tbaa !43
  %126 = call ptr @agraphof(ptr noundef %125)
  %127 = load ptr, ptr %4, align 8, !tbaa !3
  %128 = getelementptr inbounds nuw %struct.Agobj_s, ptr %127, i32 0, i32 0
  %129 = load i32, ptr %128, align 8
  %130 = and i32 %129, 3
  %131 = icmp eq i32 %130, 2
  br i1 %131, label %132, label %134

132:                                              ; preds = %122
  %133 = load ptr, ptr %4, align 8, !tbaa !3
  br label %137

134:                                              ; preds = %122
  %135 = load ptr, ptr %4, align 8, !tbaa !3
  %136 = getelementptr inbounds %struct.Agedge_s, ptr %135, i64 -1
  br label %137

137:                                              ; preds = %134, %132
  %138 = phi ptr [ %133, %132 ], [ %136, %134 ]
  %139 = getelementptr inbounds nuw %struct.Agedge_s, ptr %138, i32 0, i32 3
  %140 = load ptr, ptr %139, align 8, !tbaa !43
  %141 = load ptr, ptr %4, align 8, !tbaa !3
  %142 = getelementptr inbounds nuw %struct.Agobj_s, ptr %141, i32 0, i32 0
  %143 = load i32, ptr %142, align 8
  %144 = and i32 %143, 3
  %145 = icmp eq i32 %144, 3
  br i1 %145, label %146, label %148

146:                                              ; preds = %137
  %147 = load ptr, ptr %4, align 8, !tbaa !3
  br label %151

148:                                              ; preds = %137
  %149 = load ptr, ptr %4, align 8, !tbaa !3
  %150 = getelementptr inbounds %struct.Agedge_s, ptr %149, i64 1
  br label %151

151:                                              ; preds = %148, %146
  %152 = phi ptr [ %147, %146 ], [ %150, %148 ]
  %153 = getelementptr inbounds nuw %struct.Agedge_s, ptr %152, i32 0, i32 3
  %154 = load ptr, ptr %153, align 8, !tbaa !43
  %155 = call ptr @agedge(ptr noundef %126, ptr noundef %140, ptr noundef %154, ptr noundef null, i32 noundef 0)
  store ptr %155, ptr %12, align 8, !tbaa !3
  %156 = load ptr, ptr %12, align 8, !tbaa !3
  call void @arrow_flags(ptr noundef %156, ptr noundef %13, ptr noundef %14)
  %157 = load i32, ptr %13, align 4, !tbaa !10
  %158 = load ptr, ptr %6, align 8, !tbaa !8
  %159 = load i32, ptr %158, align 4, !tbaa !10
  %160 = or i32 %159, %157
  store i32 %160, ptr %158, align 4, !tbaa !10
  %161 = load i32, ptr %14, align 4, !tbaa !10
  %162 = load ptr, ptr %5, align 8, !tbaa !8
  %163 = load i32, ptr %162, align 4, !tbaa !10
  %164 = or i32 %163, %161
  store i32 %164, ptr %162, align 4, !tbaa !10
  call void @llvm.lifetime.end.p0(i64 4, ptr %14) #9
  call void @llvm.lifetime.end.p0(i64 4, ptr %13) #9
  call void @llvm.lifetime.end.p0(i64 8, ptr %12) #9
  br label %165

165:                                              ; preds = %151, %104
  call void @llvm.lifetime.end.p0(i64 8, ptr %7) #9
  ret void
}