; Function Attrs: nounwind uwtable
define void @arrow_flags(ptr noundef %0, ptr noundef captures(none) initializes((0, 4)) %1, ptr noundef captures(none) initializes((0, 4)) %2) local_unnamed_addr #0 {
  %4 = alloca i32, align 4
  %5 = alloca i32, align 4
  store i32 0, ptr %1, align 4, !tbaa !3
  %6 = tail call ptr @agraphof(ptr noundef %0) #12
  %7 = tail call i32 @agisdirected(ptr noundef %6) #12
  %.not = icmp ne i32 %7, 0
  %8 = zext i1 %.not to i32
  store i32 %8, ptr %2, align 4, !tbaa !3
  %9 = load ptr, ptr @E_dir, align 8, !tbaa !7
  %.not43 = icmp eq ptr %9, null
  br i1 %.not43, label %24, label %10

10:                                               ; preds = %3
  %11 = tail call ptr @agxget(ptr noundef %0, ptr noundef nonnull %9) #12
  %12 = load i8, ptr %11, align 1, !tbaa !10
  %.not44 = icmp eq i8 %12, 0
  br i1 %.not44, label %thread-pre-split, label %.preheader

.preheader:                                       ; preds = %10, %21
  %13 = phi ptr [ %23, %21 ], [ @.str.2, %10 ]
  %.051 = phi ptr [ %22, %21 ], [ @Arrowdirs, %10 ]
  %14 = tail call i32 @strcmp(ptr noundef nonnull readonly dereferenceable(1) %11, ptr noundef nonnull readonly dereferenceable(1) %13) #13
  %15 = icmp eq i32 %14, 0
  br i1 %15, label %16, label %21

16:                                               ; preds = %.preheader
  %17 = getelementptr inbounds nuw i8, ptr %.051, i64 8
  %18 = load i32, ptr %17, align 8, !tbaa !11
  store i32 %18, ptr %1, align 4, !tbaa !3
  %19 = getelementptr inbounds nuw i8, ptr %.051, i64 12
  %20 = load i32, ptr %19, align 4, !tbaa !14
  store i32 %20, ptr %2, align 4, !tbaa !3
  br label %24

21:                                               ; preds = %.preheader
  %22 = getelementptr inbounds nuw i8, ptr %.051, i64 16
  %23 = load ptr, ptr %22, align 8, !tbaa !15
  %.not45 = icmp eq ptr %23, null
  br i1 %.not45, label %thread-pre-split, label %.preheader, !llvm.loop !16

thread-pre-split:                                 ; preds = %21, %10
  %.pr = load i32, ptr %2, align 4, !tbaa !3
  br label %24

24:                                               ; preds = %thread-pre-split, %16, %3
  %25 = phi i32 [ %.pr, %thread-pre-split ], [ %20, %16 ], [ %8, %3 ]
  %26 = icmp eq i32 %25, 1
  br i1 %26, label %27, label %34

27:                                               ; preds = %24
  %28 = tail call ptr @agraphof(ptr noundef %0) #12
  %29 = tail call ptr @agattr(ptr noundef %28, i32 noundef 2, ptr noundef nonnull @.str, ptr noundef null) #12
  %.not46 = icmp eq ptr %29, null
  br i1 %.not46, label %34, label %30

30:                                               ; preds = %27
  %31 = tail call ptr @agxget(ptr noundef %0, ptr noundef nonnull %29) #12
  %32 = load i8, ptr %31, align 1, !tbaa !10
  %.not47 = icmp eq i8 %32, 0
  br i1 %.not47, label %34, label %33

33:                                               ; preds = %30
  tail call fastcc void @arrow_match_name(ptr noundef nonnull %31, ptr noundef nonnull %2)
  br label %34

34:                                               ; preds = %27, %30, %33, %24
  %35 = load i32, ptr %1, align 4, !tbaa !3
  %36 = icmp eq i32 %35, 1
  br i1 %36, label %37, label %44

37:                                               ; preds = %34
  %38 = tail call ptr @agraphof(ptr noundef %0) #12
  %39 = tail call ptr @agattr(ptr noundef %38, i32 noundef 2, ptr noundef nonnull @.str.1, ptr noundef null) #12
  %.not48 = icmp eq ptr %39, null
  br i1 %.not48, label %44, label %40

40:                                               ; preds = %37
  %41 = tail call ptr @agxget(ptr noundef %0, ptr noundef nonnull %39) #12
  %42 = load i8, ptr %41, align 1, !tbaa !10
  %.not49 = icmp eq i8 %42, 0
  br i1 %.not49, label %44, label %43

43:                                               ; preds = %40
  tail call fastcc void @arrow_match_name(ptr noundef nonnull %41, ptr noundef nonnull %1)
  br label %44

44:                                               ; preds = %37, %40, %43, %34
  %45 = getelementptr inbounds nuw i8, ptr %0, i64 16
  %46 = load ptr, ptr %45, align 8, !tbaa !18
  %47 = getelementptr inbounds nuw i8, ptr %46, i64 209
  %48 = load i8, ptr %47, align 1, !tbaa !23, !range !36, !noundef !37
  %49 = trunc nuw i8 %48 to i1
  br i1 %49, label %50, label %76

50:                                               ; preds = %44
  call void @llvm.lifetime.start.p0(i64 4, ptr nonnull %4) #12
  call void @llvm.lifetime.start.p0(i64 4, ptr nonnull %5) #12
  %51 = load i32, ptr %0, align 8
  %52 = and i32 %51, 3
  %53 = icmp eq i32 %52, 2
  %54 = getelementptr inbounds i8, ptr %0, i64 -64
  %55 = select i1 %53, ptr %0, ptr %54
  %56 = getelementptr inbounds nuw i8, ptr %55, i64 56
  %57 = load ptr, ptr %56, align 8, !tbaa !38
  %58 = tail call ptr @agraphof(ptr noundef %57) #12
  %59 = load i32, ptr %0, align 8
  %60 = and i32 %59, 3
  %61 = icmp eq i32 %60, 2
  %62 = select i1 %61, ptr %0, ptr %54
  %63 = getelementptr inbounds nuw i8, ptr %62, i64 56
  %64 = load ptr, ptr %63, align 8, !tbaa !38
  %65 = icmp eq i32 %60, 3
  %.idx = select i1 %65, i64 0, i64 64
  %66 = getelementptr inbounds nuw i8, ptr %0, i64 %.idx
  %67 = getelementptr inbounds nuw i8, ptr %66, i64 56
  %68 = load ptr, ptr %67, align 8, !tbaa !38
  %69 = tail call ptr @agedge(ptr noundef %58, ptr noundef %64, ptr noundef %68, ptr noundef null, i32 noundef 0) #12
  call void @arrow_flags(ptr noundef %69, ptr noundef nonnull %4, ptr noundef nonnull %5)
  %70 = load i32, ptr %4, align 4, !tbaa !3
  %71 = load i32, ptr %2, align 4, !tbaa !3
  %72 = or i32 %71, %70
  store i32 %72, ptr %2, align 4, !tbaa !3
  %73 = load i32, ptr %5, align 4, !tbaa !3
  %74 = load i32, ptr %1, align 4, !tbaa !3
  %75 = or i32 %74, %73
  store i32 %75, ptr %1, align 4, !tbaa !3
  call void @llvm.lifetime.end.p0(i64 4, ptr nonnull %5) #12
  call void @llvm.lifetime.end.p0(i64 4, ptr nonnull %4) #12
  br label %76

76:                                               ; preds = %50, %44
  ret void
}